target datalayout = "e-m:e-p270:32:32-p271:32:32-p272:64:64-i64:64-i128:128-f80:128-n8:16:32:64-S128"
target triple = "x86_64-pc-linux-gnu"

@_ZN19OpenColorIO_v2_5dev12_GLOBAL__N_123INTERPOLATION_1D_LINEARE = internal constant [7 x i8] c"linear\00", align 1

; Function Attrs: mustprogress nounwind uwtable
define hidden noundef ptr @_ZN19OpenColorIO_v2_5dev22GetInterpolation1DNameENS_13InterpolationE(i32 noundef %0) #4 {
  %2 = alloca ptr, align 8
  %3 = alloca i32, align 4
  store i32 %0, ptr %3, align 4, !tbaa !17
  %4 = load i32, ptr %3, align 4, !tbaa !17
  switch i32 %4, label %7 [
    i32 2, label %5
    i32 255, label %5
    i32 4, label %6
    i32 254, label %6
    i32 1, label %6
    i32 3, label %6
    i32 0, label %6
  ]

5:                                                ; preds = %1, %1
  store ptr @_ZN19OpenColorIO_v2_5dev12_GLOBAL__N_123INTERPOLATION_1D_LINEARE, ptr %2, align 8
  br label %8

6:                                                ; preds = %1, %1, %1, %1, %1
  store ptr null, ptr %2, align 8
  br label %8

7:                                                ; preds = %1
  store ptr null, ptr %2, align 8
  br label %8

8:                                                ; preds = %7, %6, %5
  %9 = load ptr, ptr %2, align 8
  ret ptr %9
}